target datalayout = "e-m:e-p270:32:32-p271:32:32-p272:64:64-i64:64-i128:128-f80:128-n8:16:32:64-S128"
target triple = "x86_64-pc-linux-gnu"

@transcoder_table = internal global ptr null, align 8
@.str.4 = private unnamed_addr constant [18 x i8] c"universal_newline\00", align 1
@.str.5 = private unnamed_addr constant [13 x i8] c"crlf_newline\00", align 1
@.str.6 = private unnamed_addr constant [11 x i8] c"cr_newline\00", align 1
@.str.7 = private unnamed_addr constant [11 x i8] c"lf_newline\00", align 1
@sym_replace = internal global i64 0, align 8
@sym_fallback = internal global i64 0, align 8
@.str.12 = private unnamed_addr constant [21 x i8] c"destination_encoding\00", align 1
@id_destination_encoding = internal global i64 0, align 8
@.str.13 = private unnamed_addr constant [26 x i8] c"destination_encoding_name\00", align 1
@id_destination_encoding_name = internal global i64 0, align 8
@.str.14 = private unnamed_addr constant [12 x i8] c"error_bytes\00", align 1
@id_error_bytes = internal global i64 0, align 8
@.str.15 = private unnamed_addr constant [11 x i8] c"error_char\00", align 1
@id_error_char = internal global i64 0, align 8
@.str.16 = private unnamed_addr constant [17 x i8] c"incomplete_input\00", align 1
@id_incomplete_input = internal global i64 0, align 8
@.str.17 = private unnamed_addr constant [16 x i8] c"readagain_bytes\00", align 1
@id_readagain_bytes = internal global i64 0, align 8
@.str.18 = private unnamed_addr constant [16 x i8] c"source_encoding\00", align 1
@id_source_encoding = internal global i64 0, align 8
@.str.19 = private unnamed_addr constant [21 x i8] c"source_encoding_name\00", align 1
@id_source_encoding_name = internal global i64 0, align 8
@.str.20 = private unnamed_addr constant [8 x i8] c"invalid\00", align 1
@sym_invalid = internal global i64 0, align 8
@.str.21 = private unnamed_addr constant [6 x i8] c"undef\00", align 1
@sym_undef = internal global i64 0, align 8
@.str.22 = private unnamed_addr constant [8 x i8] c"replace\00", align 1
@.str.23 = private unnamed_addr constant [9 x i8] c"fallback\00", align 1
@.str.24 = private unnamed_addr constant [4 x i8] c"xml\00", align 1
@sym_xml = internal global i64 0, align 8
@.str.25 = private unnamed_addr constant [5 x i8] c"text\00", align 1
@sym_text = internal global i64 0, align 8
@.str.26 = private unnamed_addr constant [5 x i8] c"attr\00", align 1
@sym_attr = internal global i64 0, align 8
@.str.27 = private unnamed_addr constant [22 x i8] c"invalid_byte_sequence\00", align 1
@sym_invalid_byte_sequence = internal global i64 0, align 8
@.str.28 = private unnamed_addr constant [21 x i8] c"undefined_conversion\00", align 1
@sym_undefined_conversion = internal global i64 0, align 8
@.str.29 = private unnamed_addr constant [24 x i8] c"destination_buffer_full\00", align 1
@sym_destination_buffer_full = internal global i64 0, align 8
@.str.30 = private unnamed_addr constant [20 x i8] c"source_buffer_empty\00", align 1
@sym_source_buffer_empty = internal global i64 0, align 8
@.str.31 = private unnamed_addr constant [9 x i8] c"finished\00", align 1
@sym_finished = internal global i64 0, align 8
@.str.32 = private unnamed_addr constant [13 x i8] c"after_output\00", align 1
@sym_after_output = internal global i64 0, align 8
@sym_incomplete_input = internal global i64 0, align 8
@sym_universal_newline = internal global i64 0, align 8
@sym_crlf_newline = internal global i64 0, align 8
@sym_cr_newline = internal global i64 0, align 8
@Init_transcode.rbimpl_id = internal global i64 0, align 8
@sym_lf_newline = internal global i64 0, align 8
@.str.33 = private unnamed_addr constant [14 x i8] c"partial_input\00", align 1
@sym_partial_input = internal global i64 0, align 8
@.str.34 = private unnamed_addr constant [8 x i8] c"newline\00", align 1
@sym_newline = internal global i64 0, align 8
@.str.35 = private unnamed_addr constant [10 x i8] c"universal\00", align 1
@sym_universal = internal global i64 0, align 8
@.str.36 = private unnamed_addr constant [5 x i8] c"crlf\00", align 1
@sym_crlf = internal global i64 0, align 8
@.str.37 = private unnamed_addr constant [3 x i8] c"cr\00", align 1
@sym_cr = internal global i64 0, align 8
@.str.38 = private unnamed_addr constant [3 x i8] c"lf\00", align 1
@sym_lf = internal global i64 0, align 8

; Function Attrs: inlinehint nounwind sspstrong memory(argmem: readwrite, inaccessiblemem: readwrite) uwtable
define internal i64 @rbimpl_intern_const(ptr noundef nonnull %0, ptr noundef nonnull %1) #9 {
  %3 = alloca ptr, align 8
  %4 = alloca ptr, align 8
  store ptr %0, ptr %3, align 8, !tbaa !80
  store ptr %1, ptr %4, align 8, !tbaa !21
  br label %5

5:                                                ; preds = %10, %2
  %6 = load ptr, ptr %3, align 8, !tbaa !80
  %7 = load i64, ptr %6, align 8, !tbaa !12
  %8 = icmp ne i64 %7, 0
  %9 = xor i1 %8, true
  br i1 %9, label %10, label %14

10:                                               ; preds = %5
  %11 = load ptr, ptr %4, align 8, !tbaa !21
  %12 = call i64 @rb_intern_const(ptr noundef %11) #29
  %13 = load ptr, ptr %3, align 8, !tbaa !80
  store i64 %12, ptr %13, align 8, !tbaa !12
  br label %5, !llvm.loop !132

14:                                               ; preds = %5
  %15 = load ptr, ptr %3, align 8, !tbaa !80
  %16 = load i64, ptr %15, align 8, !tbaa !12
  ret i64 %16
}

; Function Attrs: inlinehint nounwind sspstrong willreturn memory(read) uwtable
define internal i64 @rb_intern_const(ptr noundef nonnull %0) #11 {
  %2 = alloca ptr, align 8
  %3 = alloca i64, align 8
  store ptr %0, ptr %2, align 8, !tbaa !21
  call void @llvm.lifetime.start.p0(i64 8, ptr %3) #25
  %4 = load ptr, ptr %2, align 8, !tbaa !21
  %5 = call i64 @strlen(ptr noundef %4) #29
  store i64 %5, ptr %3, align 8, !tbaa !12
  %6 = load ptr, ptr %2, align 8, !tbaa !21
  %7 = load i64, ptr %3, align 8, !tbaa !12
  %8 = call i64 @rb_intern2(ptr noundef %6, i64 noundef %7)
  call void @llvm.lifetime.end.p0(i64 8, ptr %3) #25
  ret i64 %8
}

; Function Attrs: nounwind sspstrong uwtable
define hidden void @Init_transcode() #0 {
  %1 = alloca i64, align 8
  %2 = call ptr @rb_st_init_strcasetable()
  store ptr %2, ptr @transcoder_table, align 8, !tbaa !7
  %3 = call i64 @rb_intern_const(ptr noundef @.str.12) #29
  store i64 %3, ptr @id_destination_encoding, align 8, !tbaa !12
  %4 = call i64 @rb_intern_const(ptr noundef @.str.13) #29
  store i64 %4, ptr @id_destination_encoding_name, align 8, !tbaa !12
  %5 = call i64 @rb_intern_const(ptr noundef @.str.14) #29
  store i64 %5, ptr @id_error_bytes, align 8, !tbaa !12
  %6 = call i64 @rb_intern_const(ptr noundef @.str.15) #29
  store i64 %6, ptr @id_error_char, align 8, !tbaa !12
  %7 = call i64 @rb_intern_const(ptr noundef @.str.16) #29
  store i64 %7, ptr @id_incomplete_input, align 8, !tbaa !12
  %8 = call i64 @rb_intern_const(ptr noundef @.str.17) #29
  store i64 %8, ptr @id_readagain_bytes, align 8, !tbaa !12
  %9 = call i64 @rb_intern_const(ptr noundef @.str.18) #29
  store i64 %9, ptr @id_source_encoding, align 8, !tbaa !12
  %10 = call i64 @rb_intern_const(ptr noundef @.str.19) #29
  store i64 %10, ptr @id_source_encoding_name, align 8, !tbaa !12
  %11 = call i64 @rb_intern_const(ptr noundef @.str.20) #29
  %12 = call i64 @rb_id2sym(i64 noundef %11)
  store i64 %12, ptr @sym_invalid, align 8, !tbaa !12
  %13 = call i64 @rb_intern_const(ptr noundef @.str.21) #29
  %14 = call i64 @rb_id2sym(i64 noundef %13)
  store i64 %14, ptr @sym_undef, align 8, !tbaa !12
  %15 = call i64 @rb_intern_const(ptr noundef @.str.22) #29
  %16 = call i64 @rb_id2sym(i64 noundef %15)
  store i64 %16, ptr @sym_replace, align 8, !tbaa !12
  %17 = call i64 @rb_intern_const(ptr noundef @.str.23) #29
  %18 = call i64 @rb_id2sym(i64 noundef %17)
  store i64 %18, ptr @sym_fallback, align 8, !tbaa !12
  %19 = call i64 @rb_intern_const(ptr noundef @.str.24) #29
  %20 = call i64 @rb_id2sym(i64 noundef %19)
  store i64 %20, ptr @sym_xml, align 8, !tbaa !12
  %21 = call i64 @rb_intern_const(ptr noundef @.str.25) #29
  %22 = call i64 @rb_id2sym(i64 noundef %21)
  store i64 %22, ptr @sym_text, align 8, !tbaa !12
  %23 = call i64 @rb_intern_const(ptr noundef @.str.26) #29
  %24 = call i64 @rb_id2sym(i64 noundef %23)
  store i64 %24, ptr @sym_attr, align 8, !tbaa !12
  %25 = call i64 @rb_intern_const(ptr noundef @.str.27) #29
  %26 = call i64 @rb_id2sym(i64 noundef %25)
  store i64 %26, ptr @sym_invalid_byte_sequence, align 8, !tbaa !12
  %27 = call i64 @rb_intern_const(ptr noundef @.str.28) #29
  %28 = call i64 @rb_id2sym(i64 noundef %27)
  store i64 %28, ptr @sym_undefined_conversion, align 8, !tbaa !12
  %29 = call i64 @rb_intern_const(ptr noundef @.str.29) #29
  %30 = call i64 @rb_id2sym(i64 noundef %29)
  store i64 %30, ptr @sym_destination_buffer_full, align 8, !tbaa !12
  %31 = call i64 @rb_intern_const(ptr noundef @.str.30) #29
  %32 = call i64 @rb_id2sym(i64 noundef %31)
  store i64 %32, ptr @sym_source_buffer_empty, align 8, !tbaa !12
  %33 = call i64 @rb_intern_const(ptr noundef @.str.31) #29
  %34 = call i64 @rb_id2sym(i64 noundef %33)
  store i64 %34, ptr @sym_finished, align 8, !tbaa !12
  %35 = call i64 @rb_intern_const(ptr noundef @.str.32) #29
  %36 = call i64 @rb_id2sym(i64 noundef %35)
  store i64 %36, ptr @sym_after_output, align 8, !tbaa !12
  %37 = call i64 @rb_intern_const(ptr noundef @.str.16) #29
  %38 = call i64 @rb_id2sym(i64 noundef %37)
  store i64 %38, ptr @sym_incomplete_input, align 8, !tbaa !12
  %39 = call i64 @rb_intern_const(ptr noundef @.str.4) #29
  %40 = call i64 @rb_id2sym(i64 noundef %39)
  store i64 %40, ptr @sym_universal_newline, align 8, !tbaa !12
  %41 = call i64 @rb_intern_const(ptr noundef @.str.5) #29
  %42 = call i64 @rb_id2sym(i64 noundef %41)
  store i64 %42, ptr @sym_crlf_newline, align 8, !tbaa !12
  %43 = call i64 @rb_intern_const(ptr noundef @.str.6) #29
  %44 = call i64 @rb_id2sym(i64 noundef %43)
  store i64 %44, ptr @sym_cr_newline, align 8, !tbaa !12
  %45 = call i64 @rbimpl_intern_const(ptr noundef @Init_transcode.rbimpl_id, ptr noundef @.str.7) #28
  store i64 %45, ptr %1, align 8, !tbaa !12
  %46 = load i64, ptr %1, align 8, !tbaa !12
  %47 = call i64 @rb_id2sym(i64 noundef %46)
  store i64 %47, ptr @sym_lf_newline, align 8, !tbaa !12
  %48 = call i64 @rb_intern_const(ptr noundef @.str.33) #29
  %49 = call i64 @rb_id2sym(i64 noundef %48)
  store i64 %49, ptr @sym_partial_input, align 8, !tbaa !12
  %50 = call i64 @rb_intern_const(ptr noundef @.str.34) #29
  %51 = call i64 @rb_id2sym(i64 noundef %50)
  store i64 %51, ptr @sym_newline, align 8, !tbaa !12
  %52 = call i64 @rb_intern_const(ptr noundef @.str.35) #29
  %53 = call i64 @rb_id2sym(i64 noundef %52)
  store i64 %53, ptr @sym_universal, align 8, !tbaa !12
  %54 = call i64 @rb_intern_const(ptr noundef @.str.36) #29
  %55 = call i64 @rb_id2sym(i64 noundef %54)
  store i64 %55, ptr @sym_crlf, align 8, !tbaa !12
  %56 = call i64 @rb_intern_const(ptr noundef @.str.37) #29
  %57 = call i64 @rb_id2sym(i64 noundef %56)
  store i64 %57, ptr @sym_cr, align 8, !tbaa !12
  %58 = call i64 @rb_intern_const(ptr noundef @.str.38) #29
  %59 = call i64 @rb_id2sym(i64 noundef %58)
  store i64 %59, ptr @sym_lf, align 8, !tbaa !12
  call void @InitVM_transcode()
  ret void
}