; Function Attrs: nounwind sspstrong uwtable
define hidden void @Init_transcode() local_unnamed_addr #0 {
  %1 = tail call ptr @rb_st_init_strcasetable() #22
  store ptr %1, ptr @transcoder_table, align 8, !tbaa !7
  %2 = tail call i64 @rb_intern2(ptr noundef nonnull @.str.12, i64 noundef 20) #22
  store i64 %2, ptr @id_destination_encoding, align 8, !tbaa !22
  %3 = tail call i64 @rb_intern2(ptr noundef nonnull @.str.13, i64 noundef 25) #22
  store i64 %3, ptr @id_destination_encoding_name, align 8, !tbaa !22
  %4 = tail call i64 @rb_intern2(ptr noundef nonnull @.str.14, i64 noundef 11) #22
  store i64 %4, ptr @id_error_bytes, align 8, !tbaa !22
  %5 = tail call i64 @rb_intern2(ptr noundef nonnull @.str.15, i64 noundef 10) #22
  store i64 %5, ptr @id_error_char, align 8, !tbaa !22
  %6 = tail call i64 @rb_intern2(ptr noundef nonnull @.str.16, i64 noundef 16) #22
  store i64 %6, ptr @id_incomplete_input, align 8, !tbaa !22
  %7 = tail call i64 @rb_intern2(ptr noundef nonnull @.str.17, i64 noundef 15) #22
  store i64 %7, ptr @id_readagain_bytes, align 8, !tbaa !22
  %8 = tail call i64 @rb_intern2(ptr noundef nonnull @.str.18, i64 noundef 15) #22
  store i64 %8, ptr @id_source_encoding, align 8, !tbaa !22
  %9 = tail call i64 @rb_intern2(ptr noundef nonnull @.str.19, i64 noundef 20) #22
  store i64 %9, ptr @id_source_encoding_name, align 8, !tbaa !22
  %10 = tail call i64 @rb_intern2(ptr noundef nonnull @.str.20, i64 noundef 7) #22
  %11 = tail call i64 @rb_id2sym(i64 noundef %10) #22
  store i64 %11, ptr @sym_invalid, align 8, !tbaa !22
  %12 = tail call i64 @rb_intern2(ptr noundef nonnull @.str.21, i64 noundef 5) #22
  %13 = tail call i64 @rb_id2sym(i64 noundef %12) #22
  store i64 %13, ptr @sym_undef, align 8, !tbaa !22
  %14 = tail call i64 @rb_intern2(ptr noundef nonnull @.str.22, i64 noundef 7) #22
  %15 = tail call i64 @rb_id2sym(i64 noundef %14) #22
  store i64 %15, ptr @sym_replace, align 8, !tbaa !22
  %16 = tail call i64 @rb_intern2(ptr noundef nonnull @.str.23, i64 noundef 8) #22
  %17 = tail call i64 @rb_id2sym(i64 noundef %16) #22
  store i64 %17, ptr @sym_fallback, align 8, !tbaa !22
  %18 = tail call i64 @rb_intern2(ptr noundef nonnull @.str.24, i64 noundef 3) #22
  %19 = tail call i64 @rb_id2sym(i64 noundef %18) #22
  store i64 %19, ptr @sym_xml, align 8, !tbaa !22
  %20 = tail call i64 @rb_intern2(ptr noundef nonnull @.str.25, i64 noundef 4) #22
  %21 = tail call i64 @rb_id2sym(i64 noundef %20) #22
  store i64 %21, ptr @sym_text, align 8, !tbaa !22
  %22 = tail call i64 @rb_intern2(ptr noundef nonnull @.str.26, i64 noundef 4) #22
  %23 = tail call i64 @rb_id2sym(i64 noundef %22) #22
  store i64 %23, ptr @sym_attr, align 8, !tbaa !22
  %24 = tail call i64 @rb_intern2(ptr noundef nonnull @.str.27, i64 noundef 21) #22
  %25 = tail call i64 @rb_id2sym(i64 noundef %24) #22
  store i64 %25, ptr @sym_invalid_byte_sequence, align 8, !tbaa !22
  %26 = tail call i64 @rb_intern2(ptr noundef nonnull @.str.28, i64 noundef 20) #22
  %27 = tail call i64 @rb_id2sym(i64 noundef %26) #22
  store i64 %27, ptr @sym_undefined_conversion, align 8, !tbaa !22
  %28 = tail call i64 @rb_intern2(ptr noundef nonnull @.str.29, i64 noundef 23) #22
  %29 = tail call i64 @rb_id2sym(i64 noundef %28) #22
  store i64 %29, ptr @sym_destination_buffer_full, align 8, !tbaa !22
  %30 = tail call i64 @rb_intern2(ptr noundef nonnull @.str.30, i64 noundef 19) #22
  %31 = tail call i64 @rb_id2sym(i64 noundef %30) #22
  store i64 %31, ptr @sym_source_buffer_empty, align 8, !tbaa !22
  %32 = tail call i64 @rb_intern2(ptr noundef nonnull @.str.31, i64 noundef 8) #22
  %33 = tail call i64 @rb_id2sym(i64 noundef %32) #22
  store i64 %33, ptr @sym_finished, align 8, !tbaa !22
  %34 = tail call i64 @rb_intern2(ptr noundef nonnull @.str.32, i64 noundef 12) #22
  %35 = tail call i64 @rb_id2sym(i64 noundef %34) #22
  store i64 %35, ptr @sym_after_output, align 8, !tbaa !22
  %36 = tail call i64 @rb_intern2(ptr noundef nonnull @.str.16, i64 noundef 16) #22
  %37 = tail call i64 @rb_id2sym(i64 noundef %36) #22
  store i64 %37, ptr @sym_incomplete_input, align 8, !tbaa !22
  %38 = tail call i64 @rb_intern2(ptr noundef nonnull @.str.4, i64 noundef 17) #22
  %39 = tail call i64 @rb_id2sym(i64 noundef %38) #22
  store i64 %39, ptr @sym_universal_newline, align 8, !tbaa !22
  %40 = tail call i64 @rb_intern2(ptr noundef nonnull @.str.5, i64 noundef 12) #22
  %41 = tail call i64 @rb_id2sym(i64 noundef %40) #22
  store i64 %41, ptr @sym_crlf_newline, align 8, !tbaa !22
  %42 = tail call i64 @rb_intern2(ptr noundef nonnull @.str.6, i64 noundef 10) #22
  %43 = tail call i64 @rb_id2sym(i64 noundef %42) #22
  store i64 %43, ptr @sym_cr_newline, align 8, !tbaa !22
  %.pr.i = load i64, ptr @Init_transcode.rbimpl_id, align 8, !tbaa !22
  %.not1.i = icmp eq i64 %.pr.i, 0
  br i1 %.not1.i, label %.lr.ph.i, label %rbimpl_intern_const.exit

.lr.ph.i:                                         ; preds = %0, %.lr.ph.i
  %44 = tail call i64 @rb_intern2(ptr noundef nonnull @.str.7, i64 noundef 10) #22
  store i64 %44, ptr @Init_transcode.rbimpl_id, align 8, !tbaa !22
  %.not.i = icmp eq i64 %44, 0
  br i1 %.not.i, label %.lr.ph.i, label %rbimpl_intern_const.exit, !llvm.loop !188

rbimpl_intern_const.exit:                         ; preds = %.lr.ph.i, %0
  %.lcssa.i = phi i64 [ %.pr.i, %0 ], [ %44, %.lr.ph.i ]
  %45 = tail call i64 @rb_id2sym(i64 noundef %.lcssa.i) #22
  store i64 %45, ptr @sym_lf_newline, align 8, !tbaa !22
  %46 = tail call i64 @rb_intern2(ptr noundef nonnull @.str.33, i64 noundef 13) #22
  %47 = tail call i64 @rb_id2sym(i64 noundef %46) #22
  store i64 %47, ptr @sym_partial_input, align 8, !tbaa !22
  %48 = tail call i64 @rb_intern2(ptr noundef nonnull @.str.34, i64 noundef 7) #22
  %49 = tail call i64 @rb_id2sym(i64 noundef %48) #22
  store i64 %49, ptr @sym_newline, align 8, !tbaa !22
  %50 = tail call i64 @rb_intern2(ptr noundef nonnull @.str.35, i64 noundef 9) #22
  %51 = tail call i64 @rb_id2sym(i64 noundef %50) #22
  store i64 %51, ptr @sym_universal, align 8, !tbaa !22
  %52 = tail call i64 @rb_intern2(ptr noundef nonnull @.str.36, i64 noundef 4) #22
  %53 = tail call i64 @rb_id2sym(i64 noundef %52) #22
  store i64 %53, ptr @sym_crlf, align 8, !tbaa !22
  %54 = tail call i64 @rb_intern2(ptr noundef nonnull @.str.37, i64 noundef 2) #22
  %55 = tail call i64 @rb_id2sym(i64 noundef %54) #22
  store i64 %55, ptr @sym_cr, align 8, !tbaa !22
  %56 = tail call i64 @rb_intern2(ptr noundef nonnull @.str.38, i64 noundef 2) #22
  %57 = tail call i64 @rb_id2sym(i64 noundef %56) #22
  store i64 %57, ptr @sym_lf, align 8, !tbaa !22
  tail call void @InitVM_transcode()
  ret void
}